target datalayout = "e-m:e-p270:32:32-p271:32:32-p272:64:64-i64:64-i128:128-f80:128-n8:16:32:64-S128"
target triple = "x86_64-pc-linux-gnu"

%struct.test_fixture = type { ptr, i32, ptr, ptr }

@.str.12 = private unnamed_addr constant [27 x i8] c"test_HDR_init_with_subject\00", align 1
@.str.13 = private unnamed_addr constant [31 x i8] c"../openssl/test/cmp_hdr_test.c\00", align 1
@.str.22 = private unnamed_addr constant [3 x i8] c"CN\00", align 1
@.str.73 = private unnamed_addr constant [26 x i8] c"subject = X509_NAME_new()\00", align 1
@.str.74 = private unnamed_addr constant [44 x i8] c"X509_NAME_ADD(subject, \22CN\22, \22Common Name\22)\00", align 1
@.str.75 = private unnamed_addr constant [12 x i8] c"Common Name\00", align 1
@.str.76 = private unnamed_addr constant [57 x i8] c"OSSL_CMP_CTX_set1_subjectName(fixture->cmp_ctx, subject)\00", align 1

; Function Attrs: nounwind uwtable
define internal void @tear_down(ptr noundef %0) #0 {
  %2 = alloca ptr, align 8
  store ptr %0, ptr %2, align 8, !tbaa !4
  %3 = load ptr, ptr %2, align 8, !tbaa !4
  %4 = getelementptr inbounds nuw %struct.test_fixture, ptr %3, i32 0, i32 3
  %5 = load ptr, ptr %4, align 8, !tbaa !21
  call void @OSSL_CMP_PKIHEADER_free(ptr noundef %5)
  %6 = load ptr, ptr %2, align 8, !tbaa !4
  %7 = getelementptr inbounds nuw %struct.test_fixture, ptr %6, i32 0, i32 2
  %8 = load ptr, ptr %7, align 8, !tbaa !16
  call void @OSSL_CMP_CTX_free(ptr noundef %8)
  %9 = load ptr, ptr %2, align 8, !tbaa !4
  call void @CRYPTO_free(ptr noundef %9, ptr noundef @.str.13, i32 noundef 28)
  ret void
}

; Function Attrs: nounwind uwtable
define internal i32 @test_HDR_init_with_subject() #0 {
  %1 = alloca i32, align 4
  %2 = alloca ptr, align 8
  %3 = alloca ptr, align 8
  %4 = alloca i32, align 4
  %5 = alloca i32, align 4
  call void @llvm.lifetime.start.p0(i64 8, ptr %2) #7
  store ptr null, ptr %2, align 8, !tbaa !17
  call void @llvm.lifetime.start.p0(i64 8, ptr %3) #7
  %6 = call ptr @set_up(ptr noundef @.str.12)
  store ptr %6, ptr %3, align 8, !tbaa !4
  call void @llvm.lifetime.start.p0(i64 4, ptr %4) #7
  store i32 0, ptr %4, align 4, !tbaa !9
  %7 = load ptr, ptr %3, align 8, !tbaa !4
  %8 = icmp eq ptr %7, null
  br i1 %8, label %9, label %10

9:                                                ; preds = %0
  store i32 0, ptr %1, align 4
  store i32 1, ptr %5, align 4
  br label %45

10:                                               ; preds = %0
  %11 = load ptr, ptr %3, align 8, !tbaa !4
  %12 = getelementptr inbounds nuw %struct.test_fixture, ptr %11, i32 0, i32 1
  store i32 1, ptr %12, align 8, !tbaa !11
  %13 = call ptr @X509_NAME_new()
  store ptr %13, ptr %2, align 8, !tbaa !17
  %14 = call i32 @test_ptr(ptr noundef @.str.13, i32 noundef 468, ptr noundef @.str.73, ptr noundef %13)
  %15 = icmp ne i32 %14, 0
  br i1 %15, label %16, label %33

16:                                               ; preds = %10
  %17 = load ptr, ptr %2, align 8, !tbaa !17
  %18 = call i32 @X509_NAME_add_entry_by_txt(ptr noundef %17, ptr noundef @.str.22, i32 noundef 4097, ptr noundef @.str.75, i32 noundef -1, i32 noundef -1, i32 noundef 0)
  %19 = icmp ne i32 %18, 0
  %20 = zext i1 %19 to i32
  %21 = call i32 @test_true(ptr noundef @.str.13, i32 noundef 469, ptr noundef @.str.74, i32 noundef %20)
  %22 = icmp ne i32 %21, 0
  br i1 %22, label %23, label %33

23:                                               ; preds = %16
  %24 = load ptr, ptr %3, align 8, !tbaa !4
  %25 = getelementptr inbounds nuw %struct.test_fixture, ptr %24, i32 0, i32 2
  %26 = load ptr, ptr %25, align 8, !tbaa !16
  %27 = load ptr, ptr %2, align 8, !tbaa !17
  %28 = call i32 @OSSL_CMP_CTX_set1_subjectName(ptr noundef %26, ptr noundef %27)
  %29 = icmp ne i32 %28, 0
  %30 = zext i1 %29 to i32
  %31 = call i32 @test_true(ptr noundef @.str.13, i32 noundef 471, ptr noundef @.str.76, i32 noundef %30)
  %32 = icmp ne i32 %31, 0
  br i1 %32, label %35, label %33

33:                                               ; preds = %23, %16, %10
  %34 = load ptr, ptr %3, align 8, !tbaa !4
  call void @tear_down(ptr noundef %34)
  store ptr null, ptr %3, align 8, !tbaa !4
  br label %35

35:                                               ; preds = %33, %23
  %36 = load ptr, ptr %2, align 8, !tbaa !17
  call void @X509_NAME_free(ptr noundef %36)
  %37 = load ptr, ptr %3, align 8, !tbaa !4
  %38 = icmp ne ptr %37, null
  br i1 %38, label %39, label %43

39:                                               ; preds = %35
  %40 = load ptr, ptr %3, align 8, !tbaa !4
  %41 = call i32 @execute_HDR_init_test(ptr noundef %40)
  store i32 %41, ptr %4, align 4, !tbaa !9
  %42 = load ptr, ptr %3, align 8, !tbaa !4
  call void @tear_down(ptr noundef %42)
  br label %43

43:                                               ; preds = %39, %35
  %44 = load i32, ptr %4, align 4, !tbaa !9
  store i32 %44, ptr %1, align 4
  store i32 1, ptr %5, align 4
  br label %45

45:                                               ; preds = %43, %9
  call void @llvm.lifetime.end.p0(i64 4, ptr %4) #7
  call void @llvm.lifetime.end.p0(i64 8, ptr %3) #7
  call void @llvm.lifetime.end.p0(i64 8, ptr %2) #7
  %46 = load i32, ptr %1, align 4
  ret i32 %46
}