; Function Attrs: nounwind uwtable
define internal range(i32 0, 2) i32 @test_HDR_init_with_subject() #1 {
  %1 = tail call fastcc ptr @set_up(ptr noundef nonnull @.str.12)
  %2 = icmp eq ptr %1, null
  br i1 %2, label %28, label %3

3:                                                ; preds = %0
  %4 = getelementptr inbounds nuw i8, ptr %1, i64 8
  store i32 1, ptr %4, align 8, !tbaa !4
  %5 = tail call ptr @X509_NAME_new() #8
  %6 = tail call i32 @test_ptr(ptr noundef nonnull @.str.13, i32 noundef 468, ptr noundef nonnull @.str.73, ptr noundef %5) #8
  %.not = icmp eq i32 %6, 0
  br i1 %.not, label %.thread, label %7

7:                                                ; preds = %3
  %8 = tail call i32 @X509_NAME_add_entry_by_txt(ptr noundef %5, ptr noundef nonnull @.str.22, i32 noundef 4097, ptr noundef nonnull @.str.75, i32 noundef -1, i32 noundef -1, i32 noundef 0) #8
  %9 = icmp ne i32 %8, 0
  %10 = zext i1 %9 to i32
  %11 = tail call i32 @test_true(ptr noundef nonnull @.str.13, i32 noundef 469, ptr noundef nonnull @.str.74, i32 noundef %10) #8
  %.not14 = icmp eq i32 %11, 0
  br i1 %.not14, label %.thread, label %12

12:                                               ; preds = %7
  %13 = getelementptr inbounds nuw i8, ptr %1, i64 16
  %14 = load ptr, ptr %13, align 8, !tbaa !14
  %15 = tail call i32 @OSSL_CMP_CTX_set1_subjectName(ptr noundef %14, ptr noundef %5) #8
  %16 = icmp ne i32 %15, 0
  %17 = zext i1 %16 to i32
  %18 = tail call i32 @test_true(ptr noundef nonnull @.str.13, i32 noundef 471, ptr noundef nonnull @.str.76, i32 noundef %17) #8
  %.not15 = icmp eq i32 %18, 0
  br i1 %.not15, label %.thread, label %23

.thread:                                          ; preds = %3, %7, %12
  %19 = getelementptr inbounds nuw i8, ptr %1, i64 24
  %20 = load ptr, ptr %19, align 8, !tbaa !13
  tail call void @OSSL_CMP_PKIHEADER_free(ptr noundef %20) #8
  %21 = getelementptr inbounds nuw i8, ptr %1, i64 16
  %22 = load ptr, ptr %21, align 8, !tbaa !14
  tail call void @OSSL_CMP_CTX_free(ptr noundef %22) #8
  tail call void @CRYPTO_free(ptr noundef nonnull %1, ptr noundef nonnull @.str.13, i32 noundef 28) #8
  tail call void @X509_NAME_free(ptr noundef %5) #8
  br label %28

23:                                               ; preds = %12
  tail call void @X509_NAME_free(ptr noundef %5) #8
  %24 = tail call fastcc i32 @execute_HDR_init_test(ptr noundef %1)
  %25 = getelementptr inbounds nuw i8, ptr %1, i64 24
  %26 = load ptr, ptr %25, align 8, !tbaa !13
  tail call void @OSSL_CMP_PKIHEADER_free(ptr noundef %26) #8
  %27 = load ptr, ptr %13, align 8, !tbaa !14
  tail call void @OSSL_CMP_CTX_free(ptr noundef %27) #8
  tail call void @CRYPTO_free(ptr noundef nonnull %1, ptr noundef nonnull @.str.13, i32 noundef 28) #8
  br label %28

28:                                               ; preds = %.thread, %23, %0
  %.012 = phi i32 [ 0, %0 ], [ %24, %23 ], [ 0, %.thread ]
  ret i32 %.012
}